; Function Attrs: nounwind uwtable
define internal void @zend_fiber_cleanup(ptr noundef captures(none) initializes((104, 112), (224, 240)) %0) #7 {
  %2 = getelementptr inbounds nuw i8, ptr %0, i64 8
  %3 = load ptr, ptr %2, align 8, !tbaa !51
  %4 = load ptr, ptr @zend_ce_fiber, align 8, !tbaa !81
  %5 = icmp eq ptr %3, %4
  tail call void @llvm.assume(i1 %5)
  %6 = load ptr, ptr getelementptr inbounds nuw (i8, ptr @executor_globals, i64 496), align 8, !tbaa !62
  %7 = getelementptr inbounds nuw i8, ptr %0, i64 240
  %8 = load ptr, ptr %7, align 8, !tbaa !107
  store ptr %8, ptr getelementptr inbounds nuw (i8, ptr @executor_globals, i64 496), align 8, !tbaa !62
  tail call void @zend_vm_stack_destroy() #22
  store ptr %6, ptr getelementptr inbounds nuw (i8, ptr @executor_globals, i64 496), align 8, !tbaa !62
  %9 = getelementptr inbounds nuw i8, ptr %0, i64 224
  %10 = getelementptr inbounds nuw i8, ptr %0, i64 104
  store ptr null, ptr %10, align 8, !tbaa !88
  tail call void @llvm.memset.p0.i64(ptr noundef nonnull align 8 dereferenceable(16) %9, i8 0, i64 16, i1 false)
  ret void
}